target datalayout = "e-m:e-p270:32:32-p271:32:32-p272:64:64-i64:64-i128:128-f80:128-n8:16:32:64-S128"
target triple = "x86_64-pc-linux-gnu"

%struct.jv = type { i8, i8, i16, i32, %union.anon }
%union.anon = type { ptr }
%struct.jv_refcnt = type { i32 }
%struct.decNumber = type { i32, i32, i8, [1 x i16] }
%struct.jvp_literal_number = type { %struct.jv_refcnt, double, ptr, %struct.decNumber }
%struct.decContext = type { i32, i32, i32, i32, i32, i32, i8 }
%struct.decNumberDoublePrecision = type { %struct.decNumber, [6 x i16] }

; Function Attrs: nounwind uwtable
define internal ptr @jvp_dec_number_ptr(i64 %0, ptr %1) #0 {
  %3 = alloca %struct.jv, align 8
  %4 = getelementptr inbounds nuw { i64, ptr }, ptr %3, i32 0, i32 0
  store i64 %0, ptr %4, align 8
  %5 = getelementptr inbounds nuw { i64, ptr }, ptr %3, i32 0, i32 1
  store ptr %1, ptr %5, align 8
  %6 = getelementptr inbounds nuw %struct.jv, ptr %3, i32 0, i32 4
  %7 = load ptr, ptr %6, align 8, !tbaa !12
  %8 = getelementptr inbounds nuw %struct.jvp_literal_number, ptr %7, i32 0, i32 3
  ret ptr %8
}

; Function Attrs: nounwind uwtable
define internal double @jvp_literal_number_to_double(i64 %0, ptr %1) #0 {
  %3 = alloca %struct.jv, align 8
  %4 = alloca %struct.decContext, align 4
  %5 = alloca ptr, align 8
  %6 = alloca %struct.decNumberDoublePrecision, align 4
  %7 = alloca [32 x i8], align 16
  %8 = alloca ptr, align 8
  %9 = getelementptr inbounds nuw { i64, ptr }, ptr %3, i32 0, i32 0
  store i64 %0, ptr %9, align 8
  %10 = getelementptr inbounds nuw { i64, ptr }, ptr %3, i32 0, i32 1
  store ptr %1, ptr %10, align 8
  call void @llvm.lifetime.start.p0(i64 28, ptr %4) #11
  %11 = call ptr @decContextDefault(ptr noundef %4, i32 noundef 64)
  %12 = getelementptr inbounds nuw %struct.decContext, ptr %4, i32 0, i32 0
  store i32 17, ptr %12, align 4, !tbaa !36
  call void @llvm.lifetime.start.p0(i64 8, ptr %5) #11
  %13 = getelementptr inbounds nuw { i64, ptr }, ptr %3, i32 0, i32 0
  %14 = load i64, ptr %13, align 8
  %15 = getelementptr inbounds nuw { i64, ptr }, ptr %3, i32 0, i32 1
  %16 = load ptr, ptr %15, align 8
  %17 = call ptr @jvp_dec_number_ptr(i64 %14, ptr %16)
  store ptr %17, ptr %5, align 8, !tbaa !14
  call void @llvm.lifetime.start.p0(i64 24, ptr %6) #11
  call void @llvm.lifetime.start.p0(i64 32, ptr %7) #11
  %18 = getelementptr inbounds nuw %struct.decNumberDoublePrecision, ptr %6, i32 0, i32 0
  %19 = load ptr, ptr %5, align 8, !tbaa !14
  %20 = call ptr @decNumberReduce(ptr noundef %18, ptr noundef %19, ptr noundef %4)
  %21 = getelementptr inbounds nuw %struct.decNumberDoublePrecision, ptr %6, i32 0, i32 0
  %22 = getelementptr inbounds [32 x i8], ptr %7, i64 0, i64 0
  %23 = call ptr @decNumberToString(ptr noundef %21, ptr noundef %22)
  call void @llvm.lifetime.start.p0(i64 8, ptr %8) #11
  %24 = call ptr (...) @tsd_dtoa_context_get()
  %25 = getelementptr inbounds [32 x i8], ptr %7, i64 0, i64 0
  %26 = call double @jvp_strtod(ptr noundef %24, ptr noundef %25, ptr noundef %8)
  call void @llvm.lifetime.end.p0(i64 8, ptr %8) #11
  call void @llvm.lifetime.end.p0(i64 32, ptr %7) #11
  call void @llvm.lifetime.end.p0(i64 24, ptr %6) #11
  call void @llvm.lifetime.end.p0(i64 8, ptr %5) #11
  call void @llvm.lifetime.end.p0(i64 28, ptr %4) #11
  ret double %26
}