; Function Attrs: nounwind uwtable
define internal fastcc double @jvp_literal_number_to_double(ptr %0) unnamed_addr #2 {
  %2 = alloca %struct.decContext, align 4
  %3 = alloca %struct.decNumberDoublePrecision, align 4
  %4 = alloca [32 x i8], align 16
  %5 = alloca ptr, align 8
  call void @llvm.lifetime.start.p0(i64 28, ptr nonnull %2) #25
  %6 = call ptr @decContextDefault(ptr noundef nonnull %2, i32 noundef 64) #25
  store i32 17, ptr %2, align 4, !tbaa !28
  %7 = getelementptr inbounds nuw i8, ptr %0, i64 24
  call void @llvm.lifetime.start.p0(i64 24, ptr nonnull %3) #25
  call void @llvm.lifetime.start.p0(i64 32, ptr nonnull %4) #25
  %8 = call ptr @decNumberReduce(ptr noundef nonnull %3, ptr noundef nonnull %7, ptr noundef nonnull %2) #25
  %9 = call ptr @decNumberToString(ptr noundef nonnull %3, ptr noundef nonnull %4) #25
  call void @llvm.lifetime.start.p0(i64 8, ptr nonnull %5) #25
  %10 = call ptr (...) @tsd_dtoa_context_get() #25
  %11 = call double @jvp_strtod(ptr noundef %10, ptr noundef nonnull %4, ptr noundef nonnull %5) #25
  call void @llvm.lifetime.end.p0(i64 8, ptr nonnull %5) #25
  call void @llvm.lifetime.end.p0(i64 32, ptr nonnull %4) #25
  call void @llvm.lifetime.end.p0(i64 24, ptr nonnull %3) #25
  call void @llvm.lifetime.end.p0(i64 28, ptr nonnull %2) #25
  ret double %11
}